; Function Attrs: noreturn nounwind uwtable
define void @event_err(i32 noundef %0, ptr noundef %1, ...) local_unnamed_addr #1 {
  %3 = alloca [1 x %struct.__va_list_tag], align 16
  call void @llvm.lifetime.start.p0(i64 24, ptr nonnull %3) #12
  call void @llvm.va_start.p0(ptr nonnull %3)
  %4 = tail call ptr @__errno_location() #13
  %5 = load i32, ptr %4, align 4
  %6 = call ptr @strerror(i32 noundef %5) #12
  call void @event_logv_(i32 noundef 3, ptr noundef %6, ptr noundef %1, ptr noundef nonnull %3)
  call void @llvm.va_end.p0(ptr nonnull %3)
  call fastcc void @event_exit(i32 noundef %0) #14
  unreachable
}